Certificate:
    Data:
        Version: 3 (0x2)
        Serial Number:
            68:a1:e1:2f:d7:56:77:d3:5b:d3:5f:a2:e9:23:b9:f2:13:97:90:df
        Signature Algorithm: sha256WithRSAEncryption
        Issuer: C = US, ST = Maryland, L = Forest Hill, O = The Apache Software Foundation, OU = Apache Thrift, CN = *, emailAddress = dev@thrift.apache.org
        Validity
            Not Before: Apr 30 08:34:13 2021 GMT
            Not After : Jul 17 08:34:13 2029 GMT
        Subject: C = US, ST = Maryland, L = Forest Hill, O = The Apache Software Foundation, OU = Apache Thrift, CN = *, emailAddress = dev@thrift.apache.org
        Subject Public Key Info:
            Public Key Algorithm: rsaEncryption
                RSA Public-Key: (2048 bit)
                Modulus:
                    00:c6:f8:d0:29:a7:27:62:b1:51:44:32:23:82:68:
                    2f:5b:7b:21:e3:f7:f7:ac:9d:fc:ed:c1:91:74:63:
                    6a:f7:d2:a7:5e:32:dd:35:2e:b0:a5:84:0c:85:47:
                    21:ac:6c:be:46:e2:ca:0a:31:5c:fb:99:6e:00:a5:
                    3b:2f:66:c6:3e:17:6a:97:e6:ca:4b:94:23:76:d7:
                    a9:bf:0b:80:f3:7d:b5:cc:bf:92:35:06:c9:cc:5f:
                    c6:a3:68:4f:28:b4:b3:55:5c:4a:73:71:10:f8:71:
                    cb:7a:30:16:5d:15:d9:88:d3:46:fa:0a:57:78:29:
                    45:6e:23:06:10:b3:9d:63:3c:bd:8a:33:55:09:25:
                    a1:06:e0:03:c6:7a:39:bf:51:4a:63:84:5e:47:5d:
                    29:55:30:3b:53:3d:35:b8:50:34:96:83:40:19:e2:
                    1a:3e:f1:ca:5d:78:b6:6e:87:b1:4e:c5:9b:d3:a1:
                    a2:5e:18:e3:22:90:8c:c6:89:09:03:3a:3d:7c:32:
                    3e:a2:b2:a5:97:c8:79:e8:21:38:bc:67:d9:2c:e2:
                    dc:4c:69:7d:61:cd:75:07:ea:18:a7:17:b7:f3:b6:
                    88:66:30:fd:e8:9e:06:b8:a6:81:70:0c:1a:0c:bf:
                    c3:df:6e:7c:47:ad:6c:ff:fe:a3:3d:2c:fa:0a:4f:
                    03:6f
                Exponent: 65537 (0x10001)
        X509v3 extensions:
            X509v3 Subject Key Identifier: 
                C7:FA:68:FA:87:34:E4:48:B9:48:66:84:D5:2D:4F:73:36:29:AF:74
            X509v3 Authority Key Identifier: 
                keyid:C7:FA:68:FA:87:34:E4:48:B9:48:66:84:D5:2D:4F:73:36:29:AF:74

            X509v3 Basic Constraints: critical
                CA:TRUE
    Signature Algorithm: sha256WithRSAEncryption
         76:d2:8c:08:e6:41:46:74:5f:43:54:f2:5a:08:7f:3e:4f:c9:
         ab:a4:36:2d:b6:6b:c0:9d:44:af:1b:65:bc:f9:01:dc:c8:59:
         9a:fd:c0:ba:f2:8f:e3:c2:ed:a4:67:6b:ed:6f:24:af:49:a5:
         dd:41:e1:14:10:25:b9:bc:58:b9:d6:80:54:a1:d1:7c:71:ff:
         18:99:ea:09:8d:32:95:82:b9:0c:4e:77:7f:0d:2f:aa:49:21:
         02:e3:37:fa:dd:9e:ee:28:58:ba:ea:bc:61:70:1f:c1:98:1e:
         fa:bd:07:54:33:8e:78:02:66:5c:a1:9e:42:62:b9:af:56:ca:
         f9:97:b3:0e:1d:1f:82:7f:03:25:5c:52:2a:0f:b8:40:ed:9f:
         a7:46:5e:9c:58:af:cd:b5:15:7e:16:7a:b5:13:c9:7e:8d:51:
         26:90:69:26:22:93:6f:94:de:42:42:5d:dc:ef:97:8b:b9:98:
         a5:8e:ba:38:57:3e:39:ca:79:fb:f6:fa:51:2e:b4:44:1c:a9:
         26:5d:81:83:ae:9d:aa:e4:7e:1b:08:78:36:e8:88:8b:a8:08:
         58:3f:a7:03:a9:20:17:22:09:24:21:3f:59:1d:6f:bf:ee:70:
         42:15:05:23:60:a0:68:a8:d2:1c:3f:97:f4:ff:c1:8b:6c:b1:
         f2:df:ec:09
-----BEGIN CERTIFICATE-----
MIIENTCCAx2gAwIBAgIUaKHhL9dWd9Nb01+i6SO58hOXkN8wDQYJKoZIhvcNAQEL
BQAwgakxCzAJBgNVBAYTAlVTMREwDwYDVQQIDAhNYXJ5bGFuZDEUMBIGA1UEBwwL
Rm9yZXN0IEhpbGwxJzAlBgNVBAoMHlRoZSBBcGFjaGUgU29mdHdhcmUgRm91bmRh
dGlvbjEWMBQGA1UECwwNQXBhY2hlIFRocmlmdDEKMAgGA1UEAwwBKjEkMCIGCSqG
SIb3DQEJARYVZGV2QHRocmlmdC5hcGFjaGUub3JnMB4XDTIxMDQzMDA4MzQxM1oX
DTI5MDcxNzA4MzQxM1owgakxCzAJBgNVBAYTAlVTMREwDwYDVQQIDAhNYXJ5bGFu
ZDEUMBIGA1UEBwwLRm9yZXN0IEhpbGwxJzAlBgNVBAoMHlRoZSBBcGFjaGUgU29m
dHdhcmUgRm91bmRhdGlvbjEWMBQGA1UECwwNQXBhY2hlIFRocmlmdDEKMAgGA1UE
AwwBKjEkMCIGCSqGSIb3DQEJARYVZGV2QHRocmlmdC5hcGFjaGUub3JnMIIBIjAN
BgkqhkiG9w0BAQEFAAOCAQ8AMIIBCgKCAQEAxvjQKacnYrFRRDIjgmgvW3sh4/f3
rJ387cGRdGNq99KnXjLdNS6wpYQMhUchrGy+RuLKCjFc+5luAKU7L2bGPhdql+bK
S5QjdtepvwuA8321zL+SNQbJzF/Go2hPKLSzVVxKc3EQ+HHLejAWXRXZiNNG+gpX
eClFbiMGELOdYzy9ijNVCSWhBuADxno5v1FKY4ReR10pVTA7Uz01uFA0loNAGeIa
PvHKXXi2boexTsWb06GiXhjjIpCMxokJAzo9fDI+orKll8h56CE4vGfZLOLcTGl9
Yc11B+oYpxe387aIZjD96J4GuKaBcAwaDL/D3258R61s//6jPSz6Ck8DbwIDAQAB
o1MwUTAdBgNVHQ4EFgQUx/po+oc05Ei5SGaE1S1PczYpr3QwHwYDVR0jBBgwFoAU
x/po+oc05Ei5SGaE1S1PczYpr3QwDwYDVR0TAQH/BAUwAwEB/zANBgkqhkiG9w0B
AQsFAAOCAQEAdtKMCOZBRnRfQ1TyWgh/Pk/Jq6Q2LbZrwJ1ErxtlvPkB3MhZmv3A
uvKP48LtpGdr7W8kr0ml3UHhFBAlubxYudaAVKHRfHH/GJnqCY0ylYK5DE53fw0v
qkkhAuM3+t2e7ihYuuq8YXAfwZge+r0HVDOOeAJmXKGeQmK5r1bK+ZezDh0fgn8D
JVxSKg+4QO2fp0ZenFivzbUVfhZ6tRPJfo1RJpBpJiKTb5TeQkJd3O+Xi7mYpY66
OFc+Ocp5+/b6US60RBypJl2Bg66dquR+Gwh4NuiIi6gIWD+nA6kgFyIJJCE/WR1v
v+5wQhUFI2CgaKjSHD+X9P/Bi2yx8t/sCQ==
-----END CERTIFICATE-----
